; Function Attrs: nounwind uwtable
define hidden ptr @ChunkDelete(ptr noundef %0) local_unnamed_addr #3 {
  %2 = icmp eq ptr %0, null
  br i1 %2, label %ChunkRelease.exit, label %3

3:                                                ; preds = %1
  %4 = getelementptr inbounds nuw i8, ptr %0, i64 4
  %5 = load i32, ptr %4, align 4, !tbaa !3
  %.not.i = icmp eq i32 %5, 0
  br i1 %.not.i, label %9, label %6

6:                                                ; preds = %3
  %7 = getelementptr inbounds nuw i8, ptr %0, i64 8
  %8 = load ptr, ptr %7, align 8, !tbaa !13
  tail call void @WebPFree(ptr noundef %8) #13
  br label %9

9:                                                ; preds = %6, %3
  %10 = getelementptr inbounds nuw i8, ptr %0, i64 24
  %11 = load ptr, ptr %10, align 8, !tbaa !14
  tail call void @llvm.memset.p0.i64(ptr noundef nonnull align 8 dereferenceable(32) %0, i8 0, i64 32, i1 false)
  br label %ChunkRelease.exit

ChunkRelease.exit:                                ; preds = %1, %9
  %.0.i = phi ptr [ %11, %9 ], [ null, %1 ]
  tail call void @WebPSafeFree(ptr noundef %0) #13
  ret ptr %.0.i
}